target datalayout = "e-m:e-p270:32:32-p271:32:32-p272:64:64-i64:64-i128:128-f80:128-n8:16:32:64-S128"
target triple = "x86_64-pc-linux-gnu"

%"class.Luau::CodeGen::UnwindBuilderDwarf2" = type { %"class.Luau::CodeGen::UnwindBuilder", i64, %"class.std::vector", [1024 x i8], ptr, ptr }
%"class.Luau::CodeGen::UnwindBuilder" = type { ptr }
%"class.std::vector" = type { %"struct.std::_Vector_base" }
%"struct.std::_Vector_base" = type { %"struct.std::_Vector_base<Luau::CodeGen::UnwindFunctionDwarf2, std::allocator<Luau::CodeGen::UnwindFunctionDwarf2>>::_Vector_impl" }
%"struct.std::_Vector_base<Luau::CodeGen::UnwindFunctionDwarf2, std::allocator<Luau::CodeGen::UnwindFunctionDwarf2>>::_Vector_impl" = type { %"struct.std::_Vector_base<Luau::CodeGen::UnwindFunctionDwarf2, std::allocator<Luau::CodeGen::UnwindFunctionDwarf2>>::_Vector_impl_data" }
%"struct.std::_Vector_base<Luau::CodeGen::UnwindFunctionDwarf2, std::allocator<Luau::CodeGen::UnwindFunctionDwarf2>>::_Vector_impl_data" = type { ptr, ptr, ptr }
%"class.std::initializer_list.0" = type { ptr, i64 }
%"struct.Luau::CodeGen::X64::RegisterX64" = type { i8 }

@_ZL18regIndexToDwRegX64 = internal constant [16 x i32] [i32 0, i32 2, i32 1, i32 3, i32 7, i32 6, i32 4, i32 5, i32 8, i32 9, i32 10, i32 11, i32 12, i32 13, i32 14, i32 15], align 16

; Function Attrs: mustprogress nounwind uwtable
define linkonce_odr dso_local noundef i64 @_ZNKSt16initializer_listIN4Luau7CodeGen3X6411RegisterX64EE4sizeEv(ptr noundef nonnull align 8 dereferenceable(16) %0) #0 comdat align 2 {
  %2 = alloca ptr, align 8
  store ptr %0, ptr %2, align 8, !tbaa !53
  %3 = load ptr, ptr %2, align 8
  %4 = getelementptr inbounds nuw %"class.std::initializer_list.0", ptr %3, i32 0, i32 1
  %5 = load i64, ptr %4, align 8, !tbaa !68
  ret i64 %5
}

; Function Attrs: inlinehint mustprogress nounwind uwtable
define linkonce_odr dso_local noundef ptr @_Z12writeuleb128Phm(ptr noundef %0, i64 noundef %1) #3 comdat {
  %3 = alloca ptr, align 8
  %4 = alloca i64, align 8
  %5 = alloca i8, align 1
  store ptr %0, ptr %3, align 8, !tbaa !23
  store i64 %1, ptr %4, align 8, !tbaa !9
  br label %6

6:                                                ; preds = %23, %2
  call void @llvm.lifetime.start.p0(i64 1, ptr %5) #11
  %7 = load i64, ptr %4, align 8, !tbaa !9
  %8 = and i64 %7, 127
  %9 = trunc i64 %8 to i8
  store i8 %9, ptr %5, align 1, !tbaa !26
  %10 = load i64, ptr %4, align 8, !tbaa !9
  %11 = lshr i64 %10, 7
  store i64 %11, ptr %4, align 8, !tbaa !9
  %12 = load i64, ptr %4, align 8, !tbaa !9
  %13 = icmp ne i64 %12, 0
  br i1 %13, label %14, label %19

14:                                               ; preds = %6
  %15 = load i8, ptr %5, align 1, !tbaa !26
  %16 = zext i8 %15 to i32
  %17 = or i32 %16, 128
  %18 = trunc i32 %17 to i8
  store i8 %18, ptr %5, align 1, !tbaa !26
  br label %19

19:                                               ; preds = %14, %6
  %20 = load i8, ptr %5, align 1, !tbaa !26
  %21 = load ptr, ptr %3, align 8, !tbaa !23
  %22 = getelementptr inbounds nuw i8, ptr %21, i32 1
  store ptr %22, ptr %3, align 8, !tbaa !23
  store i8 %20, ptr %21, align 1, !tbaa !26
  call void @llvm.lifetime.end.p0(i64 1, ptr %5) #11
  br label %23

23:                                               ; preds = %19
  %24 = load i64, ptr %4, align 8, !tbaa !9
  %25 = icmp ne i64 %24, 0
  br i1 %25, label %6, label %26, !llvm.loop !27

26:                                               ; preds = %23
  %27 = load ptr, ptr %3, align 8, !tbaa !23
  ret ptr %27
}

; Function Attrs: inlinehint mustprogress nounwind uwtable
define linkonce_odr dso_local noundef ptr @_Z7writeu8Phh(ptr noundef %0, i8 noundef zeroext %1) #3 comdat {
  %3 = alloca ptr, align 8
  %4 = alloca i8, align 1
  store ptr %0, ptr %3, align 8, !tbaa !23
  store i8 %1, ptr %4, align 1, !tbaa !26
  %5 = load i8, ptr %4, align 1, !tbaa !26
  %6 = load ptr, ptr %3, align 8, !tbaa !23
  store i8 %5, ptr %6, align 1, !tbaa !26
  %7 = load ptr, ptr %3, align 8, !tbaa !23
  %8 = getelementptr inbounds nuw i8, ptr %7, i64 1
  ret ptr %8
}

; Function Attrs: mustprogress nounwind uwtable
define linkonce_odr dso_local noundef ptr @_ZNKSt16initializer_listIN4Luau7CodeGen3X6411RegisterX64EE3endEv(ptr noundef nonnull align 8 dereferenceable(16) %0) #0 comdat align 2 {
  %2 = alloca ptr, align 8
  store ptr %0, ptr %2, align 8, !tbaa !53
  %3 = load ptr, ptr %2, align 8
  %4 = call noundef ptr @_ZNKSt16initializer_listIN4Luau7CodeGen3X6411RegisterX64EE5beginEv(ptr noundef nonnull align 8 dereferenceable(16) %3) #11
  %5 = call noundef i64 @_ZNKSt16initializer_listIN4Luau7CodeGen3X6411RegisterX64EE4sizeEv(ptr noundef nonnull align 8 dereferenceable(16) %3) #11
  %6 = getelementptr inbounds nuw %"struct.Luau::CodeGen::X64::RegisterX64", ptr %4, i64 %5
  ret ptr %6
}

; Function Attrs: mustprogress nounwind uwtable
define linkonce_odr dso_local noundef ptr @_ZNKSt16initializer_listIN4Luau7CodeGen3X6411RegisterX64EE5beginEv(ptr noundef nonnull align 8 dereferenceable(16) %0) #0 comdat align 2 {
  %2 = alloca ptr, align 8
  store ptr %0, ptr %2, align 8, !tbaa !53
  %3 = load ptr, ptr %2, align 8
  %4 = getelementptr inbounds nuw %"class.std::initializer_list.0", ptr %3, i32 0, i32 0
  %5 = load ptr, ptr %4, align 8, !tbaa !58
  ret ptr %5
}

; Function Attrs: mustprogress nounwind uwtable
define internal noundef ptr @_ZL27defineSavedRegisterLocationPhij(ptr noundef %0, i32 noundef %1, i32 noundef %2) #0 {
  %4 = alloca ptr, align 8
  %5 = alloca i32, align 4
  %6 = alloca i32, align 4
  store ptr %0, ptr %4, align 8, !tbaa !23
  store i32 %1, ptr %5, align 4, !tbaa !24
  store i32 %2, ptr %6, align 4, !tbaa !24
  %7 = load i32, ptr %5, align 4, !tbaa !24
  %8 = icmp sle i32 %7, 63
  br i1 %8, label %9, label %15

9:                                                ; preds = %3
  %10 = load ptr, ptr %4, align 8, !tbaa !23
  %11 = load i32, ptr %5, align 4, !tbaa !24
  %12 = add nsw i32 128, %11
  %13 = trunc i32 %12 to i8
  %14 = call noundef ptr @_Z7writeu8Phh(ptr noundef %10, i8 noundef zeroext %13)
  store ptr %14, ptr %4, align 8, !tbaa !23
  br label %22

15:                                               ; preds = %3
  %16 = load ptr, ptr %4, align 8, !tbaa !23
  %17 = call noundef ptr @_Z7writeu8Phh(ptr noundef %16, i8 noundef zeroext 5)
  store ptr %17, ptr %4, align 8, !tbaa !23
  %18 = load ptr, ptr %4, align 8, !tbaa !23
  %19 = load i32, ptr %5, align 4, !tbaa !24
  %20 = sext i32 %19 to i64
  %21 = call noundef ptr @_Z12writeuleb128Phm(ptr noundef %18, i64 noundef %20)
  store ptr %21, ptr %4, align 8, !tbaa !23
  br label %22

22:                                               ; preds = %15, %9
  %23 = load ptr, ptr %4, align 8, !tbaa !23
  %24 = load i32, ptr %6, align 4, !tbaa !24
  %25 = udiv i32 %24, 8
  %26 = zext i32 %25 to i64
  %27 = call noundef ptr @_Z12writeuleb128Phm(ptr noundef %23, i64 noundef %26)
  store ptr %27, ptr %4, align 8, !tbaa !23
  %28 = load ptr, ptr %4, align 8, !tbaa !23
  ret ptr %28
}

; Function Attrs: mustprogress nounwind uwtable
define internal noundef ptr @_ZL25defineCfaExpressionOffsetPhj(ptr noundef %0, i32 noundef %1) #0 {
  %3 = alloca ptr, align 8
  %4 = alloca i32, align 4
  store ptr %0, ptr %3, align 8, !tbaa !23
  store i32 %1, ptr %4, align 4, !tbaa !24
  %5 = load ptr, ptr %3, align 8, !tbaa !23
  %6 = call noundef ptr @_Z7writeu8Phh(ptr noundef %5, i8 noundef zeroext 14)
  store ptr %6, ptr %3, align 8, !tbaa !23
  %7 = load ptr, ptr %3, align 8, !tbaa !23
  %8 = load i32, ptr %4, align 4, !tbaa !24
  %9 = zext i32 %8 to i64
  %10 = call noundef ptr @_Z12writeuleb128Phm(ptr noundef %7, i64 noundef %9)
  store ptr %10, ptr %3, align 8, !tbaa !23
  %11 = load ptr, ptr %3, align 8, !tbaa !23
  ret ptr %11
}

; Function Attrs: mustprogress nounwind uwtable
define internal noundef ptr @_ZL15advanceLocationPhj(ptr noundef %0, i32 noundef %1) #0 {
  %3 = alloca ptr, align 8
  %4 = alloca i32, align 4
  store ptr %0, ptr %3, align 8, !tbaa !23
  store i32 %1, ptr %4, align 4, !tbaa !24
  %5 = load ptr, ptr %3, align 8, !tbaa !23
  %6 = call noundef ptr @_Z7writeu8Phh(ptr noundef %5, i8 noundef zeroext 2)
  store ptr %6, ptr %3, align 8, !tbaa !23
  %7 = load ptr, ptr %3, align 8, !tbaa !23
  %8 = load i32, ptr %4, align 4, !tbaa !24
  %9 = trunc i32 %8 to i8
  %10 = call noundef ptr @_Z7writeu8Phh(ptr noundef %7, i8 noundef zeroext %9)
  store ptr %10, ptr %3, align 8, !tbaa !23
  %11 = load ptr, ptr %3, align 8, !tbaa !23
  ret ptr %11
}

; Function Attrs: mustprogress uwtable
define dso_local void @_ZN4Luau7CodeGen19UnwindBuilderDwarf211prologueX64EjjbSt16initializer_listINS0_3X6411RegisterX64EERKSt6vectorIS4_SaIS4_EE(ptr noundef nonnull align 8 dereferenceable(1080) %0, i32 noundef %1, i32 noundef %2, i1 noundef zeroext %3, ptr %4, i64 %5, ptr noundef nonnull align 8 dereferenceable(24) %6) unnamed_addr #1 align 2 {
  %8 = alloca %"class.std::initializer_list.0", align 8
  %9 = alloca ptr, align 8
  %10 = alloca i32, align 4
  %11 = alloca i32, align 4
  %12 = alloca i8, align 1
  %13 = alloca ptr, align 8
  %14 = alloca i32, align 4
  %15 = alloca i32, align 4
  %16 = alloca ptr, align 8
  %17 = alloca ptr, align 8
  %18 = alloca ptr, align 8
  %19 = alloca %"struct.Luau::CodeGen::X64::RegisterX64", align 1
  %20 = getelementptr inbounds nuw { ptr, i64 }, ptr %8, i32 0, i32 0
  store ptr %4, ptr %20, align 8
  %21 = getelementptr inbounds nuw { ptr, i64 }, ptr %8, i32 0, i32 1
  store i64 %5, ptr %21, align 8
  store ptr %0, ptr %9, align 8, !tbaa !4
  store i32 %1, ptr %10, align 4, !tbaa !24
  store i32 %2, ptr %11, align 4, !tbaa !24
  %22 = zext i1 %3 to i8
  store i8 %22, ptr %12, align 1, !tbaa !47
  store ptr %6, ptr %13, align 8, !tbaa !49
  %23 = load ptr, ptr %9, align 8
  call void @llvm.lifetime.start.p0(i64 4, ptr %14) #11
  store i32 8, ptr %14, align 4, !tbaa !24
  call void @llvm.lifetime.start.p0(i64 4, ptr %15) #11
  store i32 0, ptr %15, align 4, !tbaa !24
  %24 = load i8, ptr %12, align 1, !tbaa !47, !range !51, !noundef !52
  %25 = trunc i8 %24 to i1
  br i1 %25, label %26, label %51

26:                                               ; preds = %7
  %27 = load i32, ptr %14, align 4, !tbaa !24
  %28 = add i32 %27, 8
  store i32 %28, ptr %14, align 4, !tbaa !24
  %29 = load i32, ptr %15, align 4, !tbaa !24
  %30 = add i32 %29, 2
  store i32 %30, ptr %15, align 4, !tbaa !24
  %31 = getelementptr inbounds nuw %"class.Luau::CodeGen::UnwindBuilderDwarf2", ptr %23, i32 0, i32 4
  %32 = load ptr, ptr %31, align 8, !tbaa !22
  %33 = call noundef ptr @_ZL15advanceLocationPhj(ptr noundef %32, i32 noundef 2)
  %34 = getelementptr inbounds nuw %"class.Luau::CodeGen::UnwindBuilderDwarf2", ptr %23, i32 0, i32 4
  store ptr %33, ptr %34, align 8, !tbaa !22
  %35 = getelementptr inbounds nuw %"class.Luau::CodeGen::UnwindBuilderDwarf2", ptr %23, i32 0, i32 4
  %36 = load ptr, ptr %35, align 8, !tbaa !22
  %37 = load i32, ptr %14, align 4, !tbaa !24
  %38 = call noundef ptr @_ZL25defineCfaExpressionOffsetPhj(ptr noundef %36, i32 noundef %37)
  %39 = getelementptr inbounds nuw %"class.Luau::CodeGen::UnwindBuilderDwarf2", ptr %23, i32 0, i32 4
  store ptr %38, ptr %39, align 8, !tbaa !22
  %40 = getelementptr inbounds nuw %"class.Luau::CodeGen::UnwindBuilderDwarf2", ptr %23, i32 0, i32 4
  %41 = load ptr, ptr %40, align 8, !tbaa !22
  %42 = load i32, ptr %14, align 4, !tbaa !24
  %43 = call noundef ptr @_ZL27defineSavedRegisterLocationPhij(ptr noundef %41, i32 noundef 6, i32 noundef %42)
  %44 = getelementptr inbounds nuw %"class.Luau::CodeGen::UnwindBuilderDwarf2", ptr %23, i32 0, i32 4
  store ptr %43, ptr %44, align 8, !tbaa !22
  %45 = load i32, ptr %15, align 4, !tbaa !24
  %46 = add i32 %45, 3
  store i32 %46, ptr %15, align 4, !tbaa !24
  %47 = getelementptr inbounds nuw %"class.Luau::CodeGen::UnwindBuilderDwarf2", ptr %23, i32 0, i32 4
  %48 = load ptr, ptr %47, align 8, !tbaa !22
  %49 = call noundef ptr @_ZL15advanceLocationPhj(ptr noundef %48, i32 noundef 3)
  %50 = getelementptr inbounds nuw %"class.Luau::CodeGen::UnwindBuilderDwarf2", ptr %23, i32 0, i32 4
  store ptr %49, ptr %50, align 8, !tbaa !22
  br label %51

51:                                               ; preds = %26, %7
  call void @llvm.lifetime.start.p0(i64 8, ptr %16) #11
  store ptr %8, ptr %16, align 8, !tbaa !53
  call void @llvm.lifetime.start.p0(i64 8, ptr %17) #11
  %52 = load ptr, ptr %16, align 8, !tbaa !53
  %53 = call noundef ptr @_ZNKSt16initializer_listIN4Luau7CodeGen3X6411RegisterX64EE5beginEv(ptr noundef nonnull align 8 dereferenceable(16) %52) #11
  store ptr %53, ptr %17, align 8, !tbaa !55
  call void @llvm.lifetime.start.p0(i64 8, ptr %18) #11
  %54 = load ptr, ptr %16, align 8, !tbaa !53
  %55 = call noundef ptr @_ZNKSt16initializer_listIN4Luau7CodeGen3X6411RegisterX64EE3endEv(ptr noundef nonnull align 8 dereferenceable(16) %54) #11
  store ptr %55, ptr %18, align 8, !tbaa !55
  br label %56

56:                                               ; preds = %86, %51
  %57 = load ptr, ptr %17, align 8, !tbaa !55
  %58 = load ptr, ptr %18, align 8, !tbaa !55
  %59 = icmp ne ptr %57, %58
  br i1 %59, label %61, label %60

60:                                               ; preds = %56
  call void @llvm.lifetime.end.p0(i64 8, ptr %18) #11
  call void @llvm.lifetime.end.p0(i64 8, ptr %17) #11
  call void @llvm.lifetime.end.p0(i64 8, ptr %16) #11
  br label %89

61:                                               ; preds = %56
  call void @llvm.lifetime.start.p0(i64 1, ptr %19) #11
  %62 = load ptr, ptr %17, align 8, !tbaa !55
  call void @llvm.memcpy.p0.p0.i64(ptr align 1 %19, ptr align 1 %62, i64 1, i1 false), !tbaa.struct !57
  %63 = load i32, ptr %14, align 4, !tbaa !24
  %64 = add i32 %63, 8
  store i32 %64, ptr %14, align 4, !tbaa !24
  %65 = load i32, ptr %15, align 4, !tbaa !24
  %66 = add i32 %65, 2
  store i32 %66, ptr %15, align 4, !tbaa !24
  %67 = getelementptr inbounds nuw %"class.Luau::CodeGen::UnwindBuilderDwarf2", ptr %23, i32 0, i32 4
  %68 = load ptr, ptr %67, align 8, !tbaa !22
  %69 = call noundef ptr @_ZL15advanceLocationPhj(ptr noundef %68, i32 noundef 2)
  %70 = getelementptr inbounds nuw %"class.Luau::CodeGen::UnwindBuilderDwarf2", ptr %23, i32 0, i32 4
  store ptr %69, ptr %70, align 8, !tbaa !22
  %71 = getelementptr inbounds nuw %"class.Luau::CodeGen::UnwindBuilderDwarf2", ptr %23, i32 0, i32 4
  %72 = load ptr, ptr %71, align 8, !tbaa !22
  %73 = load i32, ptr %14, align 4, !tbaa !24
  %74 = call noundef ptr @_ZL25defineCfaExpressionOffsetPhj(ptr noundef %72, i32 noundef %73)
  %75 = getelementptr inbounds nuw %"class.Luau::CodeGen::UnwindBuilderDwarf2", ptr %23, i32 0, i32 4
  store ptr %74, ptr %75, align 8, !tbaa !22
  %76 = getelementptr inbounds nuw %"class.Luau::CodeGen::UnwindBuilderDwarf2", ptr %23, i32 0, i32 4
  %77 = load ptr, ptr %76, align 8, !tbaa !22
  %78 = load i8, ptr %19, align 1
  %79 = lshr i8 %78, 3
  %80 = zext i8 %79 to i64
  %81 = getelementptr inbounds nuw [16 x i32], ptr @_ZL18regIndexToDwRegX64, i64 0, i64 %80
  %82 = load i32, ptr %81, align 4, !tbaa !24
  %83 = load i32, ptr %14, align 4, !tbaa !24
  %84 = call noundef ptr @_ZL27defineSavedRegisterLocationPhij(ptr noundef %77, i32 noundef %82, i32 noundef %83)
  %85 = getelementptr inbounds nuw %"class.Luau::CodeGen::UnwindBuilderDwarf2", ptr %23, i32 0, i32 4
  store ptr %84, ptr %85, align 8, !tbaa !22
  call void @llvm.lifetime.end.p0(i64 1, ptr %19) #11
  br label %86

86:                                               ; preds = %61
  %87 = load ptr, ptr %17, align 8, !tbaa !55
  %88 = getelementptr inbounds nuw %"struct.Luau::CodeGen::X64::RegisterX64", ptr %87, i32 1
  store ptr %88, ptr %17, align 8, !tbaa !55
  br label %56

89:                                               ; preds = %60
  %90 = load i32, ptr %11, align 4, !tbaa !24
  %91 = load i32, ptr %14, align 4, !tbaa !24
  %92 = add i32 %91, %90
  store i32 %92, ptr %14, align 4, !tbaa !24
  %93 = load i32, ptr %11, align 4, !tbaa !24
  %94 = icmp uge i32 %93, 128
  %95 = select i1 %94, i32 7, i32 4
  %96 = load i32, ptr %15, align 4, !tbaa !24
  %97 = add i32 %96, %95
  store i32 %97, ptr %15, align 4, !tbaa !24
  %98 = getelementptr inbounds nuw %"class.Luau::CodeGen::UnwindBuilderDwarf2", ptr %23, i32 0, i32 4
  %99 = load ptr, ptr %98, align 8, !tbaa !22
  %100 = call noundef ptr @_ZL15advanceLocationPhj(ptr noundef %99, i32 noundef 4)
  %101 = getelementptr inbounds nuw %"class.Luau::CodeGen::UnwindBuilderDwarf2", ptr %23, i32 0, i32 4
  store ptr %100, ptr %101, align 8, !tbaa !22
  %102 = getelementptr inbounds nuw %"class.Luau::CodeGen::UnwindBuilderDwarf2", ptr %23, i32 0, i32 4
  %103 = load ptr, ptr %102, align 8, !tbaa !22
  %104 = load i32, ptr %14, align 4, !tbaa !24
  %105 = call noundef ptr @_ZL25defineCfaExpressionOffsetPhj(ptr noundef %103, i32 noundef %104)
  %106 = getelementptr inbounds nuw %"class.Luau::CodeGen::UnwindBuilderDwarf2", ptr %23, i32 0, i32 4
  store ptr %105, ptr %106, align 8, !tbaa !22
  call void @llvm.lifetime.end.p0(i64 4, ptr %15) #11
  call void @llvm.lifetime.end.p0(i64 4, ptr %14) #11
  ret void
}