; Function Attrs: mustprogress nofree norecurse nosync nounwind memory(write, argmem: readwrite, inaccessiblemem: none) uwtable
define dso_local void @_ZN4Luau7CodeGen19UnwindBuilderDwarf211prologueX64EjjbSt16initializer_listINS0_3X6411RegisterX64EERKSt6vectorIS4_SaIS4_EE(ptr noundef nonnull align 8 captures(none) dereferenceable(1080) %0, i32 %1, i32 noundef %2, i1 noundef zeroext %3, ptr readonly %4, i64 %5, ptr nonnull readnone align 8 captures(none) %6) unnamed_addr #4 align 2 {
  br i1 %3, label %_ZL25defineCfaExpressionOffsetPhj.exit, label %18

_ZL25defineCfaExpressionOffsetPhj.exit:           ; preds = %7
  %8 = getelementptr inbounds nuw i8, ptr %0, i64 1064
  %9 = load ptr, ptr %8, align 8, !tbaa !17
  store i8 2, ptr %9, align 1, !tbaa !18
  %10 = getelementptr inbounds nuw i8, ptr %9, i64 1
  store i8 2, ptr %10, align 1, !tbaa !18
  %11 = getelementptr inbounds nuw i8, ptr %9, i64 2
  store i8 14, ptr %11, align 1, !tbaa !18
  %12 = getelementptr inbounds nuw i8, ptr %9, i64 3
  store i8 16, ptr %12, align 1, !tbaa !18
  %13 = getelementptr inbounds nuw i8, ptr %9, i64 4
  store i8 -122, ptr %13, align 1, !tbaa !18
  %14 = getelementptr inbounds nuw i8, ptr %9, i64 5
  store i8 2, ptr %14, align 1, !tbaa !18
  %15 = getelementptr inbounds nuw i8, ptr %9, i64 6
  store i8 2, ptr %15, align 1, !tbaa !18
  %16 = getelementptr inbounds nuw i8, ptr %9, i64 7
  store i8 3, ptr %16, align 1, !tbaa !18
  %17 = getelementptr inbounds nuw i8, ptr %9, i64 8
  store ptr %17, ptr %8, align 8, !tbaa !17
  br label %18

18:                                               ; preds = %_ZL25defineCfaExpressionOffsetPhj.exit, %7
  %.0 = phi i32 [ 16, %_ZL25defineCfaExpressionOffsetPhj.exit ], [ 8, %7 ]
  %19 = getelementptr inbounds nuw %"struct.Luau::CodeGen::X64::RegisterX64", ptr %4, i64 %5
  %.not50 = icmp samesign eq i64 %5, 0
  %.phi.trans.insert = getelementptr inbounds nuw i8, ptr %0, i64 1064
  %.pre56 = load ptr, ptr %.phi.trans.insert, align 8, !tbaa !17
  br i1 %.not50, label %._crit_edge, label %.lr.ph

._crit_edge:                                      ; preds = %_ZL27defineSavedRegisterLocationPhij.exit46, %18
  %20 = phi ptr [ %.pre56, %18 ], [ %56, %_ZL27defineSavedRegisterLocationPhij.exit46 ]
  %.1.lcssa = phi i32 [ %.0, %18 ], [ %33, %_ZL27defineSavedRegisterLocationPhij.exit46 ]
  %21 = add i32 %.1.lcssa, %2
  store i8 2, ptr %20, align 1, !tbaa !18
  %22 = getelementptr inbounds nuw i8, ptr %20, i64 1
  store i8 4, ptr %22, align 1, !tbaa !18
  %23 = getelementptr inbounds nuw i8, ptr %20, i64 2
  store i8 14, ptr %23, align 1, !tbaa !18
  %24 = getelementptr inbounds nuw i8, ptr %20, i64 3
  %25 = zext i32 %21 to i64
  br label %26

26:                                               ; preds = %26, %._crit_edge
  %.08.i.i24 = phi ptr [ %24, %._crit_edge ], [ %30, %26 ]
  %.07.i.i25 = phi i64 [ %25, %._crit_edge ], [ %29, %26 ]
  %27 = trunc i64 %.07.i.i25 to i8
  %28 = and i8 %27, 127
  %29 = lshr i64 %.07.i.i25, 7
  %.not.i.i26 = icmp samesign ult i64 %.07.i.i25, 128
  %masksel.i.i27 = select i1 %.not.i.i26, i8 0, i8 -128
  %.0.i.i28 = or disjoint i8 %28, %masksel.i.i27
  %30 = getelementptr inbounds nuw i8, ptr %.08.i.i24, i64 1
  store i8 %.0.i.i28, ptr %.08.i.i24, align 1, !tbaa !18
  br i1 %.not.i.i26, label %_ZL25defineCfaExpressionOffsetPhj.exit29, label %26, !llvm.loop !19

_ZL25defineCfaExpressionOffsetPhj.exit29:         ; preds = %26
  %31 = getelementptr inbounds nuw i8, ptr %0, i64 1064
  store ptr %30, ptr %31, align 8, !tbaa !17
  ret void

.lr.ph:                                           ; preds = %18, %_ZL27defineSavedRegisterLocationPhij.exit46
  %32 = phi ptr [ %56, %_ZL27defineSavedRegisterLocationPhij.exit46 ], [ %.pre56, %18 ]
  %.152 = phi i32 [ %33, %_ZL27defineSavedRegisterLocationPhij.exit46 ], [ %.0, %18 ]
  %.02351 = phi ptr [ %57, %_ZL27defineSavedRegisterLocationPhij.exit46 ], [ %4, %18 ]
  %.sroa.0.0.copyload = load i8, ptr %.02351, align 1, !tbaa !18
  %33 = add i32 %.152, 8
  store i8 2, ptr %32, align 1, !tbaa !18
  %34 = getelementptr inbounds nuw i8, ptr %32, i64 1
  store i8 2, ptr %34, align 1, !tbaa !18
  %35 = getelementptr inbounds nuw i8, ptr %32, i64 2
  store i8 14, ptr %35, align 1, !tbaa !18
  %36 = getelementptr inbounds nuw i8, ptr %32, i64 3
  %37 = zext i32 %33 to i64
  br label %38

38:                                               ; preds = %38, %.lr.ph
  %.08.i.i30 = phi ptr [ %36, %.lr.ph ], [ %42, %38 ]
  %.07.i.i31 = phi i64 [ %37, %.lr.ph ], [ %41, %38 ]
  %39 = trunc i64 %.07.i.i31 to i8
  %40 = and i8 %39, 127
  %41 = lshr i64 %.07.i.i31, 7
  %.not.i.i32 = icmp samesign ult i64 %.07.i.i31, 128
  %masksel.i.i33 = select i1 %.not.i.i32, i8 0, i8 -128
  %.0.i.i34 = or disjoint i8 %40, %masksel.i.i33
  %42 = getelementptr inbounds nuw i8, ptr %.08.i.i30, i64 1
  store i8 %.0.i.i34, ptr %.08.i.i30, align 1, !tbaa !18
  br i1 %.not.i.i32, label %_ZL25defineCfaExpressionOffsetPhj.exit35, label %38, !llvm.loop !19

_ZL25defineCfaExpressionOffsetPhj.exit35:         ; preds = %38
  %43 = lshr i8 %.sroa.0.0.copyload, 3
  %44 = zext nneg i8 %43 to i64
  %45 = getelementptr inbounds nuw [16 x i32], ptr @_ZL18regIndexToDwRegX64, i64 0, i64 %44
  %46 = load i32, ptr %45, align 4, !tbaa !23
  %47 = trunc i32 %46 to i8
  %48 = xor i8 %47, -128
  store i8 %48, ptr %42, align 1, !tbaa !18
  %49 = getelementptr inbounds nuw i8, ptr %.08.i.i30, i64 2
  %50 = lshr exact i32 %33, 3
  %51 = zext nneg i32 %50 to i64
  br label %52

52:                                               ; preds = %52, %_ZL25defineCfaExpressionOffsetPhj.exit35
  %.08.i9.i41 = phi ptr [ %49, %_ZL25defineCfaExpressionOffsetPhj.exit35 ], [ %56, %52 ]
  %.07.i10.i42 = phi i64 [ %51, %_ZL25defineCfaExpressionOffsetPhj.exit35 ], [ %55, %52 ]
  %53 = trunc i64 %.07.i10.i42 to i8
  %54 = and i8 %53, 127
  %55 = lshr i64 %.07.i10.i42, 7
  %.not.i11.i43 = icmp samesign ult i64 %.07.i10.i42, 128
  %masksel.i12.i44 = select i1 %.not.i11.i43, i8 0, i8 -128
  %.0.i13.i45 = or disjoint i8 %54, %masksel.i12.i44
  %56 = getelementptr inbounds nuw i8, ptr %.08.i9.i41, i64 1
  store i8 %.0.i13.i45, ptr %.08.i9.i41, align 1, !tbaa !18
  br i1 %.not.i11.i43, label %_ZL27defineSavedRegisterLocationPhij.exit46, label %52, !llvm.loop !19

_ZL27defineSavedRegisterLocationPhij.exit46:      ; preds = %52
  store ptr %56, ptr %.phi.trans.insert, align 8, !tbaa !17
  %57 = getelementptr inbounds nuw i8, ptr %.02351, i64 1
  %.not = icmp eq ptr %57, %19
  br i1 %.not, label %._crit_edge, label %.lr.ph
}